(dp0
S'good'
p1
F0.7
sS'tensed'
p2
F-0.67
sS'fucking'
p3
S'x1'
p4
sS'angry'
p5
F-1.0
sS'absolutely'
p6
S'x1'
p7
sS'sad'
p8
F-0.34
sS'anxious'
p9
F0.0
sS'feel'
p10
F0.0
sS'bad'
p11
F-0.5
sS'not'
p12
S'x-1'
p13
sS'very'
p14
S'x1'
p15
sS'moody'
p16
F0.34
sS'chill'
p17
F1.0
sS'fine'
p18
F0.25
sS'excited'
p19
F0.67
sS'pissed'
p20
F-1.0
sS'happy'
p21
F1.0
s.